	.file	"helper.cpp"
	.text
	.section	.text._ZStanSt13_Ios_FmtflagsS_,"axG",@progbits,_ZStanSt13_Ios_FmtflagsS_,comdat
	.weak	_ZStanSt13_Ios_FmtflagsS_
	.type	_ZStanSt13_Ios_FmtflagsS_, @function
_ZStanSt13_Ios_FmtflagsS_:
.LFB3029:
	.cfi_startproc
	pushq	%rbp
	.cfi_def_cfa_offset 16
	.cfi_offset 6, -16
	movq	%rsp, %rbp
	.cfi_def_cfa_register 6
	movl	%edi, -4(%rbp)
	movl	%esi, -8(%rbp)
	movl	-4(%rbp), %eax
	andl	-8(%rbp), %eax
	popq	%rbp
	.cfi_def_cfa 7, 8
	ret
	.cfi_endproc
.LFE3029:
	.size	_ZStanSt13_Ios_FmtflagsS_, .-_ZStanSt13_Ios_FmtflagsS_
	.section	.text._ZStorSt13_Ios_FmtflagsS_,"axG",@progbits,_ZStorSt13_Ios_FmtflagsS_,comdat
	.weak	_ZStorSt13_Ios_FmtflagsS_
	.type	_ZStorSt13_Ios_FmtflagsS_, @function
_ZStorSt13_Ios_FmtflagsS_:
.LFB3030:
	.cfi_startproc
	pushq	%rbp
	.cfi_def_cfa_offset 16
	.cfi_offset 6, -16
	movq	%rsp, %rbp
	.cfi_def_cfa_register 6
	movl	%edi, -4(%rbp)
	movl	%esi, -8(%rbp)
	movl	-4(%rbp), %eax
	orl	-8(%rbp), %eax
	popq	%rbp
	.cfi_def_cfa 7, 8
	ret
	.cfi_endproc
.LFE3030:
	.size	_ZStorSt13_Ios_FmtflagsS_, .-_ZStorSt13_Ios_FmtflagsS_
	.section	.text._ZStcoSt13_Ios_Fmtflags,"axG",@progbits,_ZStcoSt13_Ios_Fmtflags,comdat
	.weak	_ZStcoSt13_Ios_Fmtflags
	.type	_ZStcoSt13_Ios_Fmtflags, @function
_ZStcoSt13_Ios_Fmtflags:
.LFB3032:
	.cfi_startproc
	pushq	%rbp
	.cfi_def_cfa_offset 16
	.cfi_offset 6, -16
	movq	%rsp, %rbp
	.cfi_def_cfa_register 6
	movl	%edi, -4(%rbp)
	movl	-4(%rbp), %eax
	notl	%eax
	popq	%rbp
	.cfi_def_cfa 7, 8
	ret
	.cfi_endproc
.LFE3032:
	.size	_ZStcoSt13_Ios_Fmtflags, .-_ZStcoSt13_Ios_Fmtflags
	.section	.text._ZStoRRSt13_Ios_FmtflagsS_,"axG",@progbits,_ZStoRRSt13_Ios_FmtflagsS_,comdat
	.weak	_ZStoRRSt13_Ios_FmtflagsS_
	.type	_ZStoRRSt13_Ios_FmtflagsS_, @function
_ZStoRRSt13_Ios_FmtflagsS_:
.LFB3033:
	.cfi_startproc
	pushq	%rbp
	.cfi_def_cfa_offset 16
	.cfi_offset 6, -16
	movq	%rsp, %rbp
	.cfi_def_cfa_register 6
	subq	$16, %rsp
	movq	%rdi, -8(%rbp)
	movl	%esi, -12(%rbp)
	movq	-8(%rbp), %rax
	movl	(%rax), %eax
	movl	-12(%rbp), %edx
	movl	%edx, %esi
	movl	%eax, %edi
	call	_ZStorSt13_Ios_FmtflagsS_
	movq	-8(%rbp), %rdx
	movl	%eax, (%rdx)
	movq	-8(%rbp), %rax
	leave
	.cfi_def_cfa 7, 8
	ret
	.cfi_endproc
.LFE3033:
	.size	_ZStoRRSt13_Ios_FmtflagsS_, .-_ZStoRRSt13_Ios_FmtflagsS_
	.section	.text._ZStaNRSt13_Ios_FmtflagsS_,"axG",@progbits,_ZStaNRSt13_Ios_FmtflagsS_,comdat
	.weak	_ZStaNRSt13_Ios_FmtflagsS_
	.type	_ZStaNRSt13_Ios_FmtflagsS_, @function
_ZStaNRSt13_Ios_FmtflagsS_:
.LFB3034:
	.cfi_startproc
	pushq	%rbp
	.cfi_def_cfa_offset 16
	.cfi_offset 6, -16
	movq	%rsp, %rbp
	.cfi_def_cfa_register 6
	subq	$16, %rsp
	movq	%rdi, -8(%rbp)
	movl	%esi, -12(%rbp)
	movq	-8(%rbp), %rax
	movl	(%rax), %eax
	movl	-12(%rbp), %edx
	movl	%edx, %esi
	movl	%eax, %edi
	call	_ZStanSt13_Ios_FmtflagsS_
	movq	-8(%rbp), %rdx
	movl	%eax, (%rdx)
	movq	-8(%rbp), %rax
	leave
	.cfi_def_cfa 7, 8
	ret
	.cfi_endproc
.LFE3034:
	.size	_ZStaNRSt13_Ios_FmtflagsS_, .-_ZStaNRSt13_Ios_FmtflagsS_
	.section	.text._ZNSt8ios_base4setfESt13_Ios_FmtflagsS0_,"axG",@progbits,_ZNSt8ios_base4setfESt13_Ios_FmtflagsS0_,comdat
	.align 2
	.weak	_ZNSt8ios_base4setfESt13_Ios_FmtflagsS0_
	.type	_ZNSt8ios_base4setfESt13_Ios_FmtflagsS0_, @function
_ZNSt8ios_base4setfESt13_Ios_FmtflagsS0_:
.LFB3063:
	.cfi_startproc
	pushq	%rbp
	.cfi_def_cfa_offset 16
	.cfi_offset 6, -16
	movq	%rsp, %rbp
	.cfi_def_cfa_register 6
	subq	$32, %rsp
	movq	%rdi, -24(%rbp)
	movl	%esi, -28(%rbp)
	movl	%edx, -32(%rbp)
	movq	-24(%rbp), %rax
	movl	24(%rax), %eax
	movl	%eax, -4(%rbp)
	movl	-32(%rbp), %eax
	movl	%eax, %edi
	call	_ZStcoSt13_Ios_Fmtflags
	movl	%eax, %edx
	movq	-24(%rbp), %rax
	addq	$24, %rax
	movl	%edx, %esi
	movq	%rax, %rdi
	call	_ZStaNRSt13_Ios_FmtflagsS_
	movl	-32(%rbp), %edx
	movl	-28(%rbp), %eax
	movl	%edx, %esi
	movl	%eax, %edi
	call	_ZStanSt13_Ios_FmtflagsS_
	movl	%eax, %edx
	movq	-24(%rbp), %rax
	addq	$24, %rax
	movl	%edx, %esi
	movq	%rax, %rdi
	call	_ZStoRRSt13_Ios_FmtflagsS_
	movl	-4(%rbp), %eax
	leave
	.cfi_def_cfa 7, 8
	ret
	.cfi_endproc
.LFE3063:
	.size	_ZNSt8ios_base4setfESt13_Ios_FmtflagsS0_, .-_ZNSt8ios_base4setfESt13_Ios_FmtflagsS0_
	.section	.text._ZSt3hexRSt8ios_base,"axG",@progbits,_ZSt3hexRSt8ios_base,comdat
	.weak	_ZSt3hexRSt8ios_base
	.type	_ZSt3hexRSt8ios_base, @function
_ZSt3hexRSt8ios_base:
.LFB3091:
	.cfi_startproc
	pushq	%rbp
	.cfi_def_cfa_offset 16
	.cfi_offset 6, -16
	movq	%rsp, %rbp
	.cfi_def_cfa_register 6
	subq	$16, %rsp
	movq	%rdi, -8(%rbp)
	movq	-8(%rbp), %rax
	movl	$74, %edx
	movl	$8, %esi
	movq	%rax, %rdi
	call	_ZNSt8ios_base4setfESt13_Ios_FmtflagsS0_
	movq	-8(%rbp), %rax
	leave
	.cfi_def_cfa 7, 8
	ret
	.cfi_endproc
.LFE3091:
	.size	_ZSt3hexRSt8ios_base, .-_ZSt3hexRSt8ios_base
#APP
	.globl _ZSt21ios_base_library_initv
#NO_APP
	.globl	cookie
	.data
	.align 8
	.type	cookie, @object
	.size	cookie, 9
cookie:
	.string	"59b997fa"
	.text
	.globl	main
	.type	main, @function
main:
.LFB9837:
	.cfi_startproc
	pushq	%rbp
	.cfi_def_cfa_offset 16
	.cfi_offset 6, -16
	movq	%rsp, %rbp
	.cfi_def_cfa_register 6
	subq	$16, %rsp
	movl	$0, -4(%rbp)
	jmp	.L16
.L17:
	leaq	_ZSt3hexRSt8ios_base(%rip), %rax
	movq	%rax, %rsi
	leaq	_ZSt4cout(%rip), %rax
	movq	%rax, %rdi
	call	_ZNSolsEPFRSt8ios_baseS0_E@PLT
	movq	%rax, %rdx
	movl	-4(%rbp), %eax
	cltq
	leaq	cookie(%rip), %rcx
	movzbl	(%rax,%rcx), %eax
	movsbl	%al, %eax
	movl	%eax, %esi
	movq	%rdx, %rdi
	call	_ZNSolsEj@PLT
	movl	$32, %esi
	movq	%rax, %rdi
	call	_ZStlsISt11char_traitsIcEERSt13basic_ostreamIcT_ES5_c@PLT
	addl	$1, -4(%rbp)
.L16:
	cmpl	$8, -4(%rbp)
	jle	.L17
	movq	_ZSt4endlIcSt11char_traitsIcEERSt13basic_ostreamIT_T0_ES6_@GOTPCREL(%rip), %rax
	movq	%rax, %rsi
	leaq	_ZSt4cout(%rip), %rax
	movq	%rax, %rdi
	call	_ZNSolsEPFRSoS_E@PLT
	movl	$0, %eax
	leave
	.cfi_def_cfa 7, 8
	ret
	.cfi_endproc
.LFE9837:
	.size	main, .-main
	.section	.rodata
	.type	_ZNSt8__detail30__integer_to_chars_is_unsignedIjEE, @object
	.size	_ZNSt8__detail30__integer_to_chars_is_unsignedIjEE, 1
_ZNSt8__detail30__integer_to_chars_is_unsignedIjEE:
	.byte	1
	.type	_ZNSt8__detail30__integer_to_chars_is_unsignedImEE, @object
	.size	_ZNSt8__detail30__integer_to_chars_is_unsignedImEE, 1
_ZNSt8__detail30__integer_to_chars_is_unsignedImEE:
	.byte	1
	.type	_ZNSt8__detail30__integer_to_chars_is_unsignedIyEE, @object
	.size	_ZNSt8__detail30__integer_to_chars_is_unsignedIyEE, 1
_ZNSt8__detail30__integer_to_chars_is_unsignedIyEE:
	.byte	1
	.type	_ZSt12__is_ratio_vISt5ratioILl1ELl1000000000EEE, @object
	.size	_ZSt12__is_ratio_vISt5ratioILl1ELl1000000000EEE, 1
_ZSt12__is_ratio_vISt5ratioILl1ELl1000000000EEE:
	.byte	1
	.type	_ZSt12__is_ratio_vISt5ratioILl1ELl1EEE, @object
	.size	_ZSt12__is_ratio_vISt5ratioILl1ELl1EEE, 1
_ZSt12__is_ratio_vISt5ratioILl1ELl1EEE:
	.byte	1
	.type	_ZSt12__is_ratio_vISt5ratioILl1000000000ELl1EEE, @object
	.size	_ZSt12__is_ratio_vISt5ratioILl1000000000ELl1EEE, 1
_ZSt12__is_ratio_vISt5ratioILl1000000000ELl1EEE:
	.byte	1
	.type	_ZNSt8__detail30__integer_to_chars_is_unsignedIoEE, @object
	.size	_ZNSt8__detail30__integer_to_chars_is_unsignedIoEE, 1
_ZNSt8__detail30__integer_to_chars_is_unsignedIoEE:
	.byte	1
	.ident	"GCC: (GNU) 14.2.1 20250207"
	.section	.note.GNU-stack,"",@progbits
